target datalayout = "e-m:e-p270:32:32-p271:32:32-p272:64:64-i64:64-i128:128-f80:128-n8:16:32:64-S128"
target triple = "x86_64-pc-linux-gnu"

; Function Attrs: nounwind uwtable
define i32 @daemonize_all_return() #0 {
  %1 = alloca i32, align 4
  %2 = call i32 @fork() #10
  store i32 %2, ptr %1, align 4
  %3 = load i32, ptr %1, align 4
  %4 = icmp eq i32 0, %3
  br i1 %4, label %5, label %7

5:                                                ; preds = %0
  %6 = call i32 @setsid() #10
  br label %7

7:                                                ; preds = %5, %0
  %8 = load i32, ptr %1, align 4
  ret i32 %8
}