; Function Attrs: nounwind uwtable
define i32 @daemonize_all_return() local_unnamed_addr #1 {
  %1 = tail call i32 @fork() #18
  %2 = icmp eq i32 %1, 0
  br i1 %2, label %3, label %5

3:                                                ; preds = %0
  %4 = tail call i32 @setsid() #18
  br label %5

5:                                                ; preds = %3, %0
  ret i32 %1
}